target datalayout = "e-m:e-p270:32:32-p271:32:32-p272:64:64-i64:64-i128:128-f80:128-n8:16:32:64-S128"
target triple = "x86_64-pc-linux-gnu"

%"class.std::__shared_count" = type { ptr }
%"class.std::shared_ptr.7" = type { %"class.std::__shared_ptr.8" }
%"class.std::__shared_ptr.8" = type { ptr, %"class.std::__shared_count" }

; Function Attrs: mustprogress uwtable
define void @_ZN5arrow20DayTimeIntervalArrayC2ElRKSt10shared_ptrINS_6BufferEES5_ll(ptr noundef nonnull align 8 dereferenceable(40) %0, i64 noundef %1, ptr noundef nonnull align 8 dereferenceable(16) %2, ptr noundef nonnull align 8 dereferenceable(16) %3, i64 noundef %4, i64 noundef %5) unnamed_addr #1 align 2 personality ptr @__gxx_personality_v0 {
  %7 = alloca ptr, align 8
  %8 = alloca i64, align 8
  %9 = alloca ptr, align 8
  %10 = alloca ptr, align 8
  %11 = alloca i64, align 8
  %12 = alloca i64, align 8
  %13 = alloca %"class.std::shared_ptr.7", align 8
  %14 = alloca ptr, align 8
  %15 = alloca i32, align 4
  store ptr %0, ptr %7, align 8, !tbaa !159
  store i64 %1, ptr %8, align 8, !tbaa !43
  store ptr %2, ptr %9, align 8, !tbaa !57
  store ptr %3, ptr %10, align 8, !tbaa !57
  store i64 %4, ptr %11, align 8, !tbaa !43
  store i64 %5, ptr %12, align 8, !tbaa !43
  %16 = load ptr, ptr %7, align 8
  call void @llvm.lifetime.start.p0(i64 16, ptr %13) #16
  call void @_ZN5arrow17day_time_intervalEv(ptr dead_on_unwind writable sret(%"class.std::shared_ptr.7") align 8 %13)
  %17 = load i64, ptr %8, align 8, !tbaa !43
  %18 = load ptr, ptr %9, align 8, !tbaa !57
  %19 = load ptr, ptr %10, align 8, !tbaa !57
  %20 = load i64, ptr %11, align 8, !tbaa !43
  %21 = load i64, ptr %12, align 8, !tbaa !43
  invoke void @_ZN5arrow20DayTimeIntervalArrayC2ERKSt10shared_ptrINS_8DataTypeEElRKS1_INS_6BufferEES9_ll(ptr noundef nonnull align 8 dereferenceable(40) %16, ptr noundef nonnull align 8 dereferenceable(16) %13, i64 noundef %17, ptr noundef nonnull align 8 dereferenceable(16) %18, ptr noundef nonnull align 8 dereferenceable(16) %19, i64 noundef %20, i64 noundef %21)
          to label %22 unwind label %23

22:                                               ; preds = %6
  call void @_ZNSt12__shared_ptrIN5arrow8DataTypeELN9__gnu_cxx12_Lock_policyE2EED2Ev(ptr noundef nonnull align 8 dereferenceable(16) %13) #16
  call void @llvm.lifetime.end.p0(i64 16, ptr %13) #16
  ret void

23:                                               ; preds = %6
  %24 = landingpad { ptr, i32 }
          cleanup
  %25 = extractvalue { ptr, i32 } %24, 0
  store ptr %25, ptr %14, align 8
  %26 = extractvalue { ptr, i32 } %24, 1
  store i32 %26, ptr %15, align 4
  call void @_ZNSt12__shared_ptrIN5arrow8DataTypeELN9__gnu_cxx12_Lock_policyE2EED2Ev(ptr noundef nonnull align 8 dereferenceable(16) %13) #16
  call void @llvm.lifetime.end.p0(i64 16, ptr %13) #16
  br label %27

27:                                               ; preds = %23
  %28 = load ptr, ptr %14, align 8
  %29 = load i32, ptr %15, align 4
  %30 = insertvalue { ptr, i32 } poison, ptr %28, 0
  %31 = insertvalue { ptr, i32 } %30, i32 %29, 1
  resume { ptr, i32 } %31
}